target datalayout = "e-m:e-p270:32:32-p271:32:32-p272:64:64-i64:64-i128:128-f80:128-n8:16:32:64-S128"
target triple = "x86_64-pc-linux-gnu"

%struct.AppendState = type { %struct.PlanState, ptr, i32, i32, i8, ptr, i32, ptr, ptr, i32, i8, i32, ptr, ptr, i32, ptr, i64, ptr, i8, ptr, ptr, ptr }
%struct.PlanState = type { i32, ptr, ptr, ptr, ptr, ptr, ptr, ptr, ptr, ptr, ptr, ptr, ptr, ptr, ptr, ptr, ptr, ptr, i8, ptr, ptr, ptr, ptr, ptr, i8, i8, i8, i8, i8, i8, i8, i8 }
%struct.ParallelAppendState = type { %struct.LWLock, i32, [0 x i8] }
%struct.LWLock = type { i16, %struct.pg_atomic_uint32, %struct.proclist_head }
%struct.pg_atomic_uint32 = type { i32 }
%struct.proclist_head = type { i32, i32 }

; Function Attrs: nounwind uwtable
define internal void @mark_invalid_subplans_as_finished(ptr noundef %0) #0 {
  %2 = alloca ptr, align 8
  %3 = alloca i32, align 4
  %4 = alloca i32, align 4
  store ptr %0, ptr %2, align 8
  call void @llvm.lifetime.start.p0(i64 4, ptr %3) #6
  %5 = load ptr, ptr %2, align 8
  %6 = getelementptr inbounds nuw %struct.AppendState, ptr %5, i32 0, i32 19
  %7 = load ptr, ptr %6, align 8
  %8 = call i32 @bms_num_members(ptr noundef %7)
  %9 = load ptr, ptr %2, align 8
  %10 = getelementptr inbounds nuw %struct.AppendState, ptr %9, i32 0, i32 2
  %11 = load i32, ptr %10, align 8
  %12 = icmp eq i32 %8, %11
  br i1 %12, label %13, label %14

13:                                               ; preds = %1
  store i32 1, ptr %4, align 4
  br label %40

14:                                               ; preds = %1
  store i32 0, ptr %3, align 4
  br label %15

15:                                               ; preds = %36, %14
  %16 = load i32, ptr %3, align 4
  %17 = load ptr, ptr %2, align 8
  %18 = getelementptr inbounds nuw %struct.AppendState, ptr %17, i32 0, i32 2
  %19 = load i32, ptr %18, align 8
  %20 = icmp slt i32 %16, %19
  br i1 %20, label %21, label %39

21:                                               ; preds = %15
  %22 = load i32, ptr %3, align 4
  %23 = load ptr, ptr %2, align 8
  %24 = getelementptr inbounds nuw %struct.AppendState, ptr %23, i32 0, i32 19
  %25 = load ptr, ptr %24, align 8
  %26 = call zeroext i1 @bms_is_member(i32 noundef %22, ptr noundef %25)
  br i1 %26, label %35, label %27

27:                                               ; preds = %21
  %28 = load ptr, ptr %2, align 8
  %29 = getelementptr inbounds nuw %struct.AppendState, ptr %28, i32 0, i32 15
  %30 = load ptr, ptr %29, align 8
  %31 = getelementptr inbounds nuw %struct.ParallelAppendState, ptr %30, i32 0, i32 2
  %32 = load i32, ptr %3, align 4
  %33 = sext i32 %32 to i64
  %34 = getelementptr inbounds [0 x i8], ptr %31, i64 0, i64 %33
  store i8 1, ptr %34, align 1
  br label %35

35:                                               ; preds = %27, %21
  br label %36

36:                                               ; preds = %35
  %37 = load i32, ptr %3, align 4
  %38 = add i32 %37, 1
  store i32 %38, ptr %3, align 4
  br label %15, !llvm.loop !19

39:                                               ; preds = %15
  store i32 0, ptr %4, align 4
  br label %40

40:                                               ; preds = %39, %13
  call void @llvm.lifetime.end.p0(i64 4, ptr %3) #6
  %41 = load i32, ptr %4, align 4
  switch i32 %41, label %43 [
    i32 0, label %42
    i32 1, label %42
  ]

42:                                               ; preds = %40, %40
  ret void

43:                                               ; preds = %40
  unreachable
}

; Function Attrs: nounwind uwtable
define internal zeroext i1 @choose_next_subplan_for_worker(ptr noundef %0) #0 {
  %2 = alloca i1, align 1
  %3 = alloca ptr, align 8
  %4 = alloca ptr, align 8
  %5 = alloca i32, align 4
  %6 = alloca i32, align 4
  %7 = alloca i32, align 4
  store ptr %0, ptr %3, align 8
  call void @llvm.lifetime.start.p0(i64 8, ptr %4) #6
  %8 = load ptr, ptr %3, align 8
  %9 = getelementptr inbounds nuw %struct.AppendState, ptr %8, i32 0, i32 15
  %10 = load ptr, ptr %9, align 8
  store ptr %10, ptr %4, align 8
  %11 = load ptr, ptr %4, align 8
  %12 = getelementptr inbounds nuw %struct.ParallelAppendState, ptr %11, i32 0, i32 0
  %13 = call zeroext i1 @LWLockAcquire(ptr noundef %12, i32 noundef 0)
  %14 = load ptr, ptr %3, align 8
  %15 = getelementptr inbounds nuw %struct.AppendState, ptr %14, i32 0, i32 3
  %16 = load i32, ptr %15, align 4
  %17 = icmp ne i32 %16, -1
  br i1 %17, label %18, label %28

18:                                               ; preds = %1
  %19 = load ptr, ptr %3, align 8
  %20 = getelementptr inbounds nuw %struct.AppendState, ptr %19, i32 0, i32 15
  %21 = load ptr, ptr %20, align 8
  %22 = getelementptr inbounds nuw %struct.ParallelAppendState, ptr %21, i32 0, i32 2
  %23 = load ptr, ptr %3, align 8
  %24 = getelementptr inbounds nuw %struct.AppendState, ptr %23, i32 0, i32 3
  %25 = load i32, ptr %24, align 4
  %26 = sext i32 %25 to i64
  %27 = getelementptr inbounds [0 x i8], ptr %22, i64 0, i64 %26
  store i8 1, ptr %27, align 1
  br label %44

28:                                               ; preds = %1
  %29 = load ptr, ptr %3, align 8
  %30 = getelementptr inbounds nuw %struct.AppendState, ptr %29, i32 0, i32 18
  %31 = load i8, ptr %30, align 8, !range !4, !noundef !5
  %32 = trunc i8 %31 to i1
  br i1 %32, label %43, label %33

33:                                               ; preds = %28
  %34 = load ptr, ptr %3, align 8
  %35 = getelementptr inbounds nuw %struct.AppendState, ptr %34, i32 0, i32 17
  %36 = load ptr, ptr %35, align 8
  %37 = call ptr @ExecFindMatchingSubPlans(ptr noundef %36, i1 noundef zeroext false, ptr noundef null)
  %38 = load ptr, ptr %3, align 8
  %39 = getelementptr inbounds nuw %struct.AppendState, ptr %38, i32 0, i32 19
  store ptr %37, ptr %39, align 8
  %40 = load ptr, ptr %3, align 8
  %41 = getelementptr inbounds nuw %struct.AppendState, ptr %40, i32 0, i32 18
  store i8 1, ptr %41, align 8
  %42 = load ptr, ptr %3, align 8
  call void @mark_invalid_subplans_as_finished(ptr noundef %42)
  br label %43

43:                                               ; preds = %33, %28
  br label %44

44:                                               ; preds = %43, %18
  %45 = load ptr, ptr %4, align 8
  %46 = getelementptr inbounds nuw %struct.ParallelAppendState, ptr %45, i32 0, i32 1
  %47 = load i32, ptr %46, align 4
  %48 = icmp eq i32 %47, -1
  br i1 %48, label %49, label %52

49:                                               ; preds = %44
  %50 = load ptr, ptr %4, align 8
  %51 = getelementptr inbounds nuw %struct.ParallelAppendState, ptr %50, i32 0, i32 0
  call void @LWLockRelease(ptr noundef %51)
  store i1 false, ptr %2, align 1
  store i32 1, ptr %5, align 4
  br label %194

52:                                               ; preds = %44
  %53 = load ptr, ptr %4, align 8
  %54 = getelementptr inbounds nuw %struct.ParallelAppendState, ptr %53, i32 0, i32 1
  %55 = load i32, ptr %54, align 4
  %56 = load ptr, ptr %3, align 8
  %57 = getelementptr inbounds nuw %struct.AppendState, ptr %56, i32 0, i32 3
  store i32 %55, ptr %57, align 4
  br label %58

58:                                               ; preds = %134, %52
  %59 = load ptr, ptr %4, align 8
  %60 = getelementptr inbounds nuw %struct.ParallelAppendState, ptr %59, i32 0, i32 2
  %61 = load ptr, ptr %4, align 8
  %62 = getelementptr inbounds nuw %struct.ParallelAppendState, ptr %61, i32 0, i32 1
  %63 = load i32, ptr %62, align 4
  %64 = sext i32 %63 to i64
  %65 = getelementptr inbounds [0 x i8], ptr %60, i64 0, i64 %64
  %66 = load i8, ptr %65, align 1, !range !4, !noundef !5
  %67 = trunc i8 %66 to i1
  br i1 %67, label %68, label %135

68:                                               ; preds = %58
  call void @llvm.lifetime.start.p0(i64 4, ptr %6) #6
  %69 = load ptr, ptr %3, align 8
  %70 = getelementptr inbounds nuw %struct.AppendState, ptr %69, i32 0, i32 19
  %71 = load ptr, ptr %70, align 8
  %72 = load ptr, ptr %4, align 8
  %73 = getelementptr inbounds nuw %struct.ParallelAppendState, ptr %72, i32 0, i32 1
  %74 = load i32, ptr %73, align 4
  %75 = call i32 @bms_next_member(ptr noundef %71, i32 noundef %74)
  store i32 %75, ptr %6, align 4
  %76 = load i32, ptr %6, align 4
  %77 = icmp sge i32 %76, 0
  br i1 %77, label %78, label %82

78:                                               ; preds = %68
  %79 = load i32, ptr %6, align 4
  %80 = load ptr, ptr %4, align 8
  %81 = getelementptr inbounds nuw %struct.ParallelAppendState, ptr %80, i32 0, i32 1
  store i32 %79, ptr %81, align 4
  br label %118

82:                                               ; preds = %68
  %83 = load ptr, ptr %3, align 8
  %84 = getelementptr inbounds nuw %struct.AppendState, ptr %83, i32 0, i32 3
  %85 = load i32, ptr %84, align 4
  %86 = load ptr, ptr %3, align 8
  %87 = getelementptr inbounds nuw %struct.AppendState, ptr %86, i32 0, i32 14
  %88 = load i32, ptr %87, align 8
  %89 = icmp sgt i32 %85, %88
  br i1 %89, label %90, label %111

90:                                               ; preds = %82
  %91 = load ptr, ptr %3, align 8
  %92 = getelementptr inbounds nuw %struct.AppendState, ptr %91, i32 0, i32 19
  %93 = load ptr, ptr %92, align 8
  %94 = load ptr, ptr %3, align 8
  %95 = getelementptr inbounds nuw %struct.AppendState, ptr %94, i32 0, i32 14
  %96 = load i32, ptr %95, align 8
  %97 = sub i32 %96, 1
  %98 = call i32 @bms_next_member(ptr noundef %93, i32 noundef %97)
  store i32 %98, ptr %6, align 4
  %99 = load i32, ptr %6, align 4
  %100 = icmp slt i32 %99, 0
  br i1 %100, label %101, label %105

101:                                              ; preds = %90
  %102 = load ptr, ptr %3, align 8
  %103 = getelementptr inbounds nuw %struct.AppendState, ptr %102, i32 0, i32 3
  %104 = load i32, ptr %103, align 4
  br label %107

105:                                              ; preds = %90
  %106 = load i32, ptr %6, align 4
  br label %107

107:                                              ; preds = %105, %101
  %108 = phi i32 [ %104, %101 ], [ %106, %105 ]
  %109 = load ptr, ptr %4, align 8
  %110 = getelementptr inbounds nuw %struct.ParallelAppendState, ptr %109, i32 0, i32 1
  store i32 %108, ptr %110, align 4
  br label %117

111:                                              ; preds = %82
  %112 = load ptr, ptr %3, align 8
  %113 = getelementptr inbounds nuw %struct.AppendState, ptr %112, i32 0, i32 3
  %114 = load i32, ptr %113, align 4
  %115 = load ptr, ptr %4, align 8
  %116 = getelementptr inbounds nuw %struct.ParallelAppendState, ptr %115, i32 0, i32 1
  store i32 %114, ptr %116, align 4
  br label %117

117:                                              ; preds = %111, %107
  br label %118

118:                                              ; preds = %117, %78
  %119 = load ptr, ptr %4, align 8
  %120 = getelementptr inbounds nuw %struct.ParallelAppendState, ptr %119, i32 0, i32 1
  %121 = load i32, ptr %120, align 4
  %122 = load ptr, ptr %3, align 8
  %123 = getelementptr inbounds nuw %struct.AppendState, ptr %122, i32 0, i32 3
  %124 = load i32, ptr %123, align 4
  %125 = icmp eq i32 %121, %124
  br i1 %125, label %126, label %131

126:                                              ; preds = %118
  %127 = load ptr, ptr %4, align 8
  %128 = getelementptr inbounds nuw %struct.ParallelAppendState, ptr %127, i32 0, i32 1
  store i32 -1, ptr %128, align 4
  %129 = load ptr, ptr %4, align 8
  %130 = getelementptr inbounds nuw %struct.ParallelAppendState, ptr %129, i32 0, i32 0
  call void @LWLockRelease(ptr noundef %130)
  store i1 false, ptr %2, align 1
  store i32 1, ptr %5, align 4
  br label %132

131:                                              ; preds = %118
  store i32 0, ptr %5, align 4
  br label %132

132:                                              ; preds = %131, %126
  call void @llvm.lifetime.end.p0(i64 4, ptr %6) #6
  %133 = load i32, ptr %5, align 4
  switch i32 %133, label %194 [
    i32 0, label %134
  ]

134:                                              ; preds = %132
  br label %58, !llvm.loop !13

135:                                              ; preds = %58
  %136 = load ptr, ptr %4, align 8
  %137 = getelementptr inbounds nuw %struct.ParallelAppendState, ptr %136, i32 0, i32 1
  %138 = load i32, ptr %137, align 4
  %139 = load ptr, ptr %3, align 8
  %140 = getelementptr inbounds nuw %struct.AppendState, ptr %139, i32 0, i32 3
  store i32 %138, ptr %140, align 4
  %141 = load ptr, ptr %3, align 8
  %142 = getelementptr inbounds nuw %struct.AppendState, ptr %141, i32 0, i32 19
  %143 = load ptr, ptr %142, align 8
  %144 = load ptr, ptr %4, align 8
  %145 = getelementptr inbounds nuw %struct.ParallelAppendState, ptr %144, i32 0, i32 1
  %146 = load i32, ptr %145, align 4
  %147 = call i32 @bms_next_member(ptr noundef %143, i32 noundef %146)
  %148 = load ptr, ptr %4, align 8
  %149 = getelementptr inbounds nuw %struct.ParallelAppendState, ptr %148, i32 0, i32 1
  store i32 %147, ptr %149, align 4
  %150 = load ptr, ptr %4, align 8
  %151 = getelementptr inbounds nuw %struct.ParallelAppendState, ptr %150, i32 0, i32 1
  %152 = load i32, ptr %151, align 4
  %153 = icmp slt i32 %152, 0
  br i1 %153, label %154, label %173

154:                                              ; preds = %135
  call void @llvm.lifetime.start.p0(i64 4, ptr %7) #6
  %155 = load ptr, ptr %3, align 8
  %156 = getelementptr inbounds nuw %struct.AppendState, ptr %155, i32 0, i32 19
  %157 = load ptr, ptr %156, align 8
  %158 = load ptr, ptr %3, align 8
  %159 = getelementptr inbounds nuw %struct.AppendState, ptr %158, i32 0, i32 14
  %160 = load i32, ptr %159, align 8
  %161 = sub i32 %160, 1
  %162 = call i32 @bms_next_member(ptr noundef %157, i32 noundef %161)
  store i32 %162, ptr %7, align 4
  %163 = load i32, ptr %7, align 4
  %164 = icmp sge i32 %163, 0
  br i1 %164, label %165, label %169

165:                                              ; preds = %154
  %166 = load i32, ptr %7, align 4
  %167 = load ptr, ptr %4, align 8
  %168 = getelementptr inbounds nuw %struct.ParallelAppendState, ptr %167, i32 0, i32 1
  store i32 %166, ptr %168, align 4
  br label %172

169:                                              ; preds = %154
  %170 = load ptr, ptr %4, align 8
  %171 = getelementptr inbounds nuw %struct.ParallelAppendState, ptr %170, i32 0, i32 1
  store i32 -1, ptr %171, align 4
  br label %172

172:                                              ; preds = %169, %165
  call void @llvm.lifetime.end.p0(i64 4, ptr %7) #6
  br label %173

173:                                              ; preds = %172, %135
  %174 = load ptr, ptr %3, align 8
  %175 = getelementptr inbounds nuw %struct.AppendState, ptr %174, i32 0, i32 3
  %176 = load i32, ptr %175, align 4
  %177 = load ptr, ptr %3, align 8
  %178 = getelementptr inbounds nuw %struct.AppendState, ptr %177, i32 0, i32 14
  %179 = load i32, ptr %178, align 8
  %180 = icmp slt i32 %176, %179
  br i1 %180, label %181, label %191

181:                                              ; preds = %173
  %182 = load ptr, ptr %3, align 8
  %183 = getelementptr inbounds nuw %struct.AppendState, ptr %182, i32 0, i32 15
  %184 = load ptr, ptr %183, align 8
  %185 = getelementptr inbounds nuw %struct.ParallelAppendState, ptr %184, i32 0, i32 2
  %186 = load ptr, ptr %3, align 8
  %187 = getelementptr inbounds nuw %struct.AppendState, ptr %186, i32 0, i32 3
  %188 = load i32, ptr %187, align 4
  %189 = sext i32 %188 to i64
  %190 = getelementptr inbounds [0 x i8], ptr %185, i64 0, i64 %189
  store i8 1, ptr %190, align 1
  br label %191

191:                                              ; preds = %181, %173
  %192 = load ptr, ptr %4, align 8
  %193 = getelementptr inbounds nuw %struct.ParallelAppendState, ptr %192, i32 0, i32 0
  call void @LWLockRelease(ptr noundef %193)
  store i1 true, ptr %2, align 1
  store i32 1, ptr %5, align 4
  br label %194

194:                                              ; preds = %191, %132, %49
  call void @llvm.lifetime.end.p0(i64 8, ptr %4) #6
  %195 = load i1, ptr %2, align 1
  ret i1 %195
}