; Function Attrs: nounwind uwtable
define internal noundef zeroext i1 @choose_next_subplan_for_worker(ptr noundef captures(none) %0) #0 {
  %2 = getelementptr inbounds nuw i8, ptr %0, i64 296
  %3 = load ptr, ptr %2, align 8
  %4 = tail call zeroext i1 @LWLockAcquire(ptr noundef %3, i32 noundef 0) #6
  %5 = getelementptr inbounds nuw i8, ptr %0, i64 212
  %6 = load i32, ptr %5, align 4
  %.not = icmp eq i32 %6, -1
  br i1 %.not, label %12, label %7

7:                                                ; preds = %1
  %8 = load ptr, ptr %2, align 8
  %9 = getelementptr inbounds nuw i8, ptr %8, i64 20
  %10 = sext i32 %6 to i64
  %11 = getelementptr inbounds [0 x i8], ptr %9, i64 0, i64 %10
  store i8 1, ptr %11, align 1
  br label %mark_invalid_subplans_as_finished.exit

12:                                               ; preds = %1
  %13 = getelementptr inbounds nuw i8, ptr %0, i64 320
  %14 = load i8, ptr %13, align 8, !range !4, !noundef !5
  %15 = trunc nuw i8 %14 to i1
  br i1 %15, label %mark_invalid_subplans_as_finished.exit, label %16

16:                                               ; preds = %12
  %17 = getelementptr inbounds nuw i8, ptr %0, i64 312
  %18 = load ptr, ptr %17, align 8
  %19 = tail call ptr @ExecFindMatchingSubPlans(ptr noundef %18, i1 noundef zeroext false, ptr noundef null) #6
  %20 = getelementptr inbounds nuw i8, ptr %0, i64 328
  store ptr %19, ptr %20, align 8
  store i8 1, ptr %13, align 8
  %21 = tail call i32 @bms_num_members(ptr noundef %19) #6
  %22 = getelementptr inbounds nuw i8, ptr %0, i64 208
  %23 = load i32, ptr %22, align 8
  %24 = icmp ne i32 %21, %23
  %25 = icmp sgt i32 %23, 0
  %or.cond.i = and i1 %24, %25
  br i1 %or.cond.i, label %.lr.ph.i, label %mark_invalid_subplans_as_finished.exit

.lr.ph.i:                                         ; preds = %16, %33
  %indvars.iv.i = phi i64 [ %indvars.iv.next.i, %33 ], [ 0, %16 ]
  %26 = load ptr, ptr %20, align 8
  %27 = trunc nuw nsw i64 %indvars.iv.i to i32
  %28 = tail call zeroext i1 @bms_is_member(i32 noundef %27, ptr noundef %26) #6
  br i1 %28, label %33, label %29

29:                                               ; preds = %.lr.ph.i
  %30 = load ptr, ptr %2, align 8
  %31 = getelementptr inbounds nuw i8, ptr %30, i64 20
  %32 = getelementptr inbounds nuw [0 x i8], ptr %31, i64 0, i64 %indvars.iv.i
  store i8 1, ptr %32, align 1
  br label %33

33:                                               ; preds = %29, %.lr.ph.i
  %indvars.iv.next.i = add nuw nsw i64 %indvars.iv.i, 1
  %34 = load i32, ptr %22, align 8
  %35 = sext i32 %34 to i64
  %36 = icmp slt i64 %indvars.iv.next.i, %35
  br i1 %36, label %.lr.ph.i, label %mark_invalid_subplans_as_finished.exit, !llvm.loop !16

mark_invalid_subplans_as_finished.exit:           ; preds = %33, %16, %12, %7
  %37 = getelementptr inbounds nuw i8, ptr %3, i64 16
  %38 = load i32, ptr %37, align 4
  %39 = icmp eq i32 %38, -1
  br i1 %39, label %86, label %40

40:                                               ; preds = %mark_invalid_subplans_as_finished.exit
  store i32 %38, ptr %5, align 4
  %41 = getelementptr inbounds nuw i8, ptr %3, i64 20
  %42 = getelementptr inbounds nuw i8, ptr %0, i64 328
  %43 = getelementptr inbounds nuw i8, ptr %0, i64 288
  %.pre = load i32, ptr %37, align 4
  br label %.critedge

.critedge:                                        ; preds = %64, %40
  %44 = phi i32 [ %.sink, %64 ], [ %.pre, %40 ]
  %45 = sext i32 %44 to i64
  %46 = getelementptr inbounds [0 x i8], ptr %41, i64 0, i64 %45
  %47 = load i8, ptr %46, align 1, !range !4, !noundef !5
  %48 = trunc nuw i8 %47 to i1
  br i1 %48, label %49, label %67

49:                                               ; preds = %.critedge
  %50 = load ptr, ptr %42, align 8
  %51 = tail call i32 @bms_next_member(ptr noundef %50, i32 noundef %44) #6
  %52 = icmp sgt i32 %51, -1
  br i1 %52, label %64, label %53

53:                                               ; preds = %49
  %54 = load i32, ptr %5, align 4
  %55 = load i32, ptr %43, align 8
  %56 = icmp sgt i32 %54, %55
  br i1 %56, label %57, label %64

57:                                               ; preds = %53
  %58 = load ptr, ptr %42, align 8
  %59 = add i32 %55, -1
  %60 = tail call i32 @bms_next_member(ptr noundef %58, i32 noundef %59) #6
  %61 = icmp slt i32 %60, 0
  br i1 %61, label %62, label %64

62:                                               ; preds = %57
  %63 = load i32, ptr %5, align 4
  br label %64

64:                                               ; preds = %53, %62, %57, %49
  %.sink = phi i32 [ %51, %49 ], [ %63, %62 ], [ %60, %57 ], [ %54, %53 ]
  store i32 %.sink, ptr %37, align 4
  %65 = load i32, ptr %5, align 4
  %.not62 = icmp eq i32 %.sink, %65
  br i1 %.not62, label %66, label %.critedge

66:                                               ; preds = %64
  store i32 -1, ptr %37, align 4
  br label %86, !llvm.loop !18

67:                                               ; preds = %.critedge
  store i32 %44, ptr %5, align 4
  %68 = load ptr, ptr %42, align 8
  %69 = load i32, ptr %37, align 4
  %70 = tail call i32 @bms_next_member(ptr noundef %68, i32 noundef %69) #6
  store i32 %70, ptr %37, align 4
  %71 = icmp slt i32 %70, 0
  br i1 %71, label %72, label %77

72:                                               ; preds = %67
  %73 = load ptr, ptr %42, align 8
  %74 = load i32, ptr %43, align 8
  %75 = add i32 %74, -1
  %76 = tail call i32 @bms_next_member(ptr noundef %73, i32 noundef %75) #6
  %. = tail call i32 @llvm.smax.i32(i32 %76, i32 -1)
  store i32 %., ptr %37, align 4
  br label %77

77:                                               ; preds = %72, %67
  %78 = load i32, ptr %5, align 4
  %79 = load i32, ptr %43, align 8
  %80 = icmp slt i32 %78, %79
  br i1 %80, label %81, label %86

81:                                               ; preds = %77
  %82 = load ptr, ptr %2, align 8
  %83 = getelementptr inbounds nuw i8, ptr %82, i64 20
  %84 = sext i32 %78 to i64
  %85 = getelementptr inbounds [0 x i8], ptr %83, i64 0, i64 %84
  store i8 1, ptr %85, align 1
  br label %86

86:                                               ; preds = %77, %81, %mark_invalid_subplans_as_finished.exit, %66
  %.0 = phi i1 [ false, %66 ], [ false, %mark_invalid_subplans_as_finished.exit ], [ true, %81 ], [ true, %77 ]
  tail call void @LWLockRelease(ptr noundef nonnull %3) #6
  ret i1 %.0
}